target datalayout = "e-m:e-p270:32:32-p271:32:32-p272:64:64-i64:64-i128:128-f80:128-n8:16:32:64-S128"
target triple = "x86_64-pc-linux-gnu"

%"class.std::__cxx11::basic_string" = type { %"struct.std::__cxx11::basic_string<char>::_Alloc_hider", i64, %union.anon }
%"struct.std::__cxx11::basic_string<char>::_Alloc_hider" = type { ptr }
%union.anon = type { i64, [8 x i8] }
%class.colvarscript = type { ptr, ptr, %"class.std::__cxx11::basic_string", %"class.std::map", %"class.std::__cxx11::basic_string", ptr, %"class.std::vector", %"class.std::vector", %"class.std::vector.6", %"class.std::vector.6", %"class.std::vector.11", %"class.std::vector", %"class.std::vector.16" }
%"class.std::map" = type { %"class.std::_Rb_tree" }
%"class.std::_Rb_tree" = type { %"struct.std::_Rb_tree<std::__cxx11::basic_string<char>, std::pair<const std::__cxx11::basic_string<char>, colvarscript::command>, std::_Select1st<std::pair<const std::__cxx11::basic_string<char>, colvarscript::command>>, std::less<std::__cxx11::basic_string<char>>>::_Rb_tree_impl" }
%"struct.std::_Rb_tree<std::__cxx11::basic_string<char>, std::pair<const std::__cxx11::basic_string<char>, colvarscript::command>, std::_Select1st<std::pair<const std::__cxx11::basic_string<char>, colvarscript::command>>, std::less<std::__cxx11::basic_string<char>>>::_Rb_tree_impl" = type { %"struct.std::_Rb_tree_key_compare", %"struct.std::_Rb_tree_header" }
%"struct.std::_Rb_tree_key_compare" = type { %"struct.std::less" }
%"struct.std::less" = type { i8 }
%"struct.std::_Rb_tree_header" = type { %"struct.std::_Rb_tree_node_base", i64 }
%"struct.std::_Rb_tree_node_base" = type { i32, ptr, ptr, ptr }
%"class.std::vector.6" = type { %"struct.std::_Vector_base.7" }
%"struct.std::_Vector_base.7" = type { %"struct.std::_Vector_base<unsigned long, std::allocator<unsigned long>>::_Vector_impl" }
%"struct.std::_Vector_base<unsigned long, std::allocator<unsigned long>>::_Vector_impl" = type { %"struct.std::_Vector_base<unsigned long, std::allocator<unsigned long>>::_Vector_impl_data" }
%"struct.std::_Vector_base<unsigned long, std::allocator<unsigned long>>::_Vector_impl_data" = type { ptr, ptr, ptr }
%"class.std::vector.11" = type { %"struct.std::_Vector_base.12" }
%"struct.std::_Vector_base.12" = type { %"struct.std::_Vector_base<std::vector<std::__cxx11::basic_string<char>>, std::allocator<std::vector<std::__cxx11::basic_string<char>>>>::_Vector_impl" }
%"struct.std::_Vector_base<std::vector<std::__cxx11::basic_string<char>>, std::allocator<std::vector<std::__cxx11::basic_string<char>>>>::_Vector_impl" = type { %"struct.std::_Vector_base<std::vector<std::__cxx11::basic_string<char>>, std::allocator<std::vector<std::__cxx11::basic_string<char>>>>::_Vector_impl_data" }
%"struct.std::_Vector_base<std::vector<std::__cxx11::basic_string<char>>, std::allocator<std::vector<std::__cxx11::basic_string<char>>>>::_Vector_impl_data" = type { ptr, ptr, ptr }
%"class.std::vector" = type { %"struct.std::_Vector_base" }
%"struct.std::_Vector_base" = type { %"struct.std::_Vector_base<std::__cxx11::basic_string<char>, std::allocator<std::__cxx11::basic_string<char>>>::_Vector_impl" }
%"struct.std::_Vector_base<std::__cxx11::basic_string<char>, std::allocator<std::__cxx11::basic_string<char>>>::_Vector_impl" = type { %"struct.std::_Vector_base<std::__cxx11::basic_string<char>, std::allocator<std::__cxx11::basic_string<char>>>::_Vector_impl_data" }
%"struct.std::_Vector_base<std::__cxx11::basic_string<char>, std::allocator<std::__cxx11::basic_string<char>>>::_Vector_impl_data" = type { ptr, ptr, ptr }
%"class.std::vector.16" = type { %"struct.std::_Vector_base.17" }
%"struct.std::_Vector_base.17" = type { %"struct.std::_Vector_base<int (*)(void *, int, unsigned char *const *), std::allocator<int (*)(void *, int, unsigned char *const *)>>::_Vector_impl" }
%"struct.std::_Vector_base<int (*)(void *, int, unsigned char *const *), std::allocator<int (*)(void *, int, unsigned char *const *)>>::_Vector_impl" = type { %"struct.std::_Vector_base<int (*)(void *, int, unsigned char *const *), std::allocator<int (*)(void *, int, unsigned char *const *)>>::_Vector_impl_data" }
%"struct.std::_Vector_base<int (*)(void *, int, unsigned char *const *), std::allocator<int (*)(void *, int, unsigned char *const *)>>::_Vector_impl_data" = type { ptr, ptr, ptr }

@_ZN12colvarmodule9errorCodeE = external global i32, align 4

; Function Attrs: mustprogress nounwind uwtable
define linkonce_odr noundef nonnull align 8 dereferenceable(32) ptr @_ZN12colvarscript17modify_str_resultB5cxx11Ev(ptr noundef nonnull align 8 dereferenceable(304) %0) #2 comdat align 2 {
  %2 = alloca ptr, align 8
  store ptr %0, ptr %2, align 8
  %3 = load ptr, ptr %2, align 8
  %4 = getelementptr inbounds %class.colvarscript, ptr %3, i32 0, i32 2
  ret ptr %4
}

; Function Attrs: mustprogress nounwind uwtable
define linkonce_odr noundef i32 @_ZN12colvarmodule9get_errorEv() #2 comdat align 2 {
  %1 = load i32, ptr @_ZN12colvarmodule9errorCodeE, align 4
  ret i32 %1
}

; Function Attrs: mustprogress uwtable
define noundef i32 @_ZN12colvarscript14set_result_strERKNSt7__cxx1112basic_stringIcSt11char_traitsIcESaIcEEE(ptr noundef nonnull align 8 dereferenceable(304) %0, ptr noundef nonnull align 8 dereferenceable(32) %1) #0 align 2 {
  %3 = alloca ptr, align 8
  %4 = alloca ptr, align 8
  store ptr %0, ptr %3, align 8
  store ptr %1, ptr %4, align 8
  %5 = load ptr, ptr %3, align 8
  %6 = call noundef i32 @_ZN12colvarmodule9get_errorEv()
  %7 = icmp ne i32 %6, 0
  br i1 %7, label %8, label %12

8:                                                ; preds = %2
  %9 = load ptr, ptr %4, align 8
  %10 = call noundef nonnull align 8 dereferenceable(32) ptr @_ZN12colvarscript17modify_str_resultB5cxx11Ev(ptr noundef nonnull align 8 dereferenceable(304) %5)
  %11 = call noundef nonnull align 8 dereferenceable(32) ptr @_ZNSt7__cxx1112basic_stringIcSt11char_traitsIcESaIcEEpLERKS4_(ptr noundef nonnull align 8 dereferenceable(32) %10, ptr noundef nonnull align 8 dereferenceable(32) %9)
  br label %16

12:                                               ; preds = %2
  %13 = load ptr, ptr %4, align 8
  %14 = call noundef nonnull align 8 dereferenceable(32) ptr @_ZN12colvarscript17modify_str_resultB5cxx11Ev(ptr noundef nonnull align 8 dereferenceable(304) %5)
  %15 = call noundef nonnull align 8 dereferenceable(32) ptr @_ZNSt7__cxx1112basic_stringIcSt11char_traitsIcESaIcEEaSERKS4_(ptr noundef nonnull align 8 dereferenceable(32) %14, ptr noundef nonnull align 8 dereferenceable(32) %13)
  br label %16

16:                                               ; preds = %12, %8
  ret i32 0
}